target datalayout = "e-m:e-p270:32:32-p271:32:32-p272:64:64-i64:64-i128:128-f80:128-n8:16:32:64-S128"
target triple = "x86_64-pc-linux-gnu"

@hf_gtpv2_CauseRadioNetwork = internal global i32 0, align 4
@hf_gtpv2_CauseTransport = internal global i32 0, align 4
@hf_gtpv2_CauseNas = internal global i32 0, align 4
@hf_gtpv2_CauseMisc = internal global i32 0, align 4
@hf_gtpv2_CauseProtocol = internal global i32 0, align 4
@hf_gtpv2_ran_nas_protocol_type = internal global i32 0, align 4
@hf_gtpv2_ran_nas_cause_type = internal global i32 0, align 4
@hf_gtpv2_ran_nas_cause_value = internal global i32 0, align 4
@hf_gtpv2_emm_cause = internal global i32 0, align 4
@hf_gtpv2_esm_cause = internal global i32 0, align 4
@hf_gtpv2_diameter_cause = internal global i32 0, align 4
@hf_gtpv2_ikev2_cause = internal global i32 0, align 4

; Function Attrs: null_pointer_is_valid sspstrong uwtable
define internal void @dissect_gtpv2_s1ap_cause(ptr noundef %0, ptr noundef %1, ptr noundef %2, i32 noundef %3, i8 noundef zeroext %4) #1 {
  %6 = alloca ptr, align 8
  %7 = alloca ptr, align 8
  %8 = alloca ptr, align 8
  %9 = alloca i32, align 4
  %10 = alloca i8, align 1
  store ptr %0, ptr %6, align 8
  store ptr %1, ptr %7, align 8
  store ptr %2, ptr %8, align 8
  store i32 %3, ptr %9, align 4
  store i8 %4, ptr %10, align 1
  %11 = load i8, ptr %10, align 1
  %12 = zext i8 %11 to i32
  switch i32 %12, label %43 [
    i32 0, label %13
    i32 1, label %19
    i32 2, label %25
    i32 3, label %31
    i32 4, label %37
  ]

13:                                               ; preds = %5
  %14 = load ptr, ptr %8, align 8
  %15 = load i32, ptr @hf_gtpv2_CauseRadioNetwork, align 4
  %16 = load ptr, ptr %6, align 8
  %17 = load i32, ptr %9, align 4
  %18 = call ptr @proto_tree_add_item(ptr noundef %14, i32 noundef %15, ptr noundef %16, i32 noundef %17, i32 noundef 1, i32 noundef 0)
  br label %44

19:                                               ; preds = %5
  %20 = load ptr, ptr %8, align 8
  %21 = load i32, ptr @hf_gtpv2_CauseTransport, align 4
  %22 = load ptr, ptr %6, align 8
  %23 = load i32, ptr %9, align 4
  %24 = call ptr @proto_tree_add_item(ptr noundef %20, i32 noundef %21, ptr noundef %22, i32 noundef %23, i32 noundef 1, i32 noundef 0)
  br label %44

25:                                               ; preds = %5
  %26 = load ptr, ptr %8, align 8
  %27 = load i32, ptr @hf_gtpv2_CauseNas, align 4
  %28 = load ptr, ptr %6, align 8
  %29 = load i32, ptr %9, align 4
  %30 = call ptr @proto_tree_add_item(ptr noundef %26, i32 noundef %27, ptr noundef %28, i32 noundef %29, i32 noundef 1, i32 noundef 0)
  br label %44

31:                                               ; preds = %5
  %32 = load ptr, ptr %8, align 8
  %33 = load i32, ptr @hf_gtpv2_CauseProtocol, align 4
  %34 = load ptr, ptr %6, align 8
  %35 = load i32, ptr %9, align 4
  %36 = call ptr @proto_tree_add_item(ptr noundef %32, i32 noundef %33, ptr noundef %34, i32 noundef %35, i32 noundef 1, i32 noundef 0)
  br label %44

37:                                               ; preds = %5
  %38 = load ptr, ptr %8, align 8
  %39 = load i32, ptr @hf_gtpv2_CauseMisc, align 4
  %40 = load ptr, ptr %6, align 8
  %41 = load i32, ptr %9, align 4
  %42 = call ptr @proto_tree_add_item(ptr noundef %38, i32 noundef %39, ptr noundef %40, i32 noundef %41, i32 noundef 1, i32 noundef 0)
  br label %44

43:                                               ; preds = %5
  br label %44

44:                                               ; preds = %43, %37, %31, %25, %19, %13
  ret void
}

; Function Attrs: null_pointer_is_valid sspstrong uwtable
define internal void @dissect_gtpv2_ran_nas_cause(ptr noundef %0, ptr noundef %1, ptr noundef %2, ptr noundef %3, i16 noundef zeroext %4, i8 noundef zeroext %5, i8 noundef zeroext %6, ptr noundef %7) #1 {
  %9 = alloca ptr, align 8
  %10 = alloca ptr, align 8
  %11 = alloca ptr, align 8
  %12 = alloca ptr, align 8
  %13 = alloca i16, align 2
  %14 = alloca i8, align 1
  %15 = alloca i8, align 1
  %16 = alloca ptr, align 8
  %17 = alloca i32, align 4
  %18 = alloca i8, align 1
  %19 = alloca i8, align 1
  %20 = alloca i32, align 4
  store ptr %0, ptr %9, align 8
  store ptr %1, ptr %10, align 8
  store ptr %2, ptr %11, align 8
  store ptr %3, ptr %12, align 8
  store i16 %4, ptr %13, align 2
  store i8 %5, ptr %14, align 1
  store i8 %6, ptr %15, align 1
  store ptr %7, ptr %16, align 8
  call void @llvm.lifetime.start.p0(i64 4, ptr %17) #11
  store i32 0, ptr %17, align 4
  call void @llvm.lifetime.start.p0(i64 1, ptr %18) #11
  %21 = load ptr, ptr %9, align 8
  %22 = load i32, ptr %17, align 4
  %23 = call zeroext i8 @tvb_get_uint8(ptr noundef %21, i32 noundef %22)
  store i8 %23, ptr %18, align 1
  call void @llvm.lifetime.start.p0(i64 1, ptr %19) #11
  %24 = load i8, ptr %18, align 1
  %25 = zext i8 %24 to i32
  %26 = ashr i32 %25, 4
  %27 = trunc i32 %26 to i8
  store i8 %27, ptr %19, align 1
  call void @llvm.lifetime.start.p0(i64 4, ptr %20) #11
  store i32 0, ptr %20, align 4
  %28 = load ptr, ptr %11, align 8
  %29 = load i32, ptr @hf_gtpv2_ran_nas_protocol_type, align 4
  %30 = load ptr, ptr %9, align 8
  %31 = load i32, ptr %17, align 4
  %32 = call ptr @proto_tree_add_item(ptr noundef %28, i32 noundef %29, ptr noundef %30, i32 noundef %31, i32 noundef 1, i32 noundef 0)
  %33 = load i8, ptr %19, align 1
  %34 = zext i8 %33 to i32
  %35 = icmp eq i32 %34, 1
  br i1 %35, label %36, label %45

36:                                               ; preds = %8
  %37 = load ptr, ptr %11, align 8
  %38 = load i32, ptr @hf_gtpv2_ran_nas_cause_type, align 4
  %39 = load ptr, ptr %9, align 8
  %40 = load i32, ptr %17, align 4
  %41 = call ptr @proto_tree_add_item(ptr noundef %37, i32 noundef %38, ptr noundef %39, i32 noundef %40, i32 noundef 1, i32 noundef 0)
  %42 = load i8, ptr %18, align 1
  %43 = zext i8 %42 to i32
  %44 = and i32 %43, 15
  store i32 %44, ptr %20, align 4
  br label %45

45:                                               ; preds = %36, %8
  %46 = load i32, ptr %17, align 4
  %47 = add i32 %46, 1
  store i32 %47, ptr %17, align 4
  %48 = load i8, ptr %19, align 1
  %49 = zext i8 %48 to i32
  switch i32 %49, label %81 [
    i32 1, label %50
    i32 2, label %57
    i32 3, label %63
    i32 4, label %69
    i32 5, label %75
  ]

50:                                               ; preds = %45
  %51 = load ptr, ptr %9, align 8
  %52 = load ptr, ptr %10, align 8
  %53 = load ptr, ptr %11, align 8
  %54 = load i32, ptr %17, align 4
  %55 = load i32, ptr %20, align 4
  %56 = trunc i32 %55 to i8
  call void @dissect_gtpv2_s1ap_cause(ptr noundef %51, ptr noundef %52, ptr noundef %53, i32 noundef %54, i8 noundef zeroext %56)
  br label %91

57:                                               ; preds = %45
  %58 = load ptr, ptr %11, align 8
  %59 = load i32, ptr @hf_gtpv2_emm_cause, align 4
  %60 = load ptr, ptr %9, align 8
  %61 = load i32, ptr %17, align 4
  %62 = call ptr @proto_tree_add_item(ptr noundef %58, i32 noundef %59, ptr noundef %60, i32 noundef %61, i32 noundef 1, i32 noundef 0)
  br label %91

63:                                               ; preds = %45
  %64 = load ptr, ptr %11, align 8
  %65 = load i32, ptr @hf_gtpv2_esm_cause, align 4
  %66 = load ptr, ptr %9, align 8
  %67 = load i32, ptr %17, align 4
  %68 = call ptr @proto_tree_add_item(ptr noundef %64, i32 noundef %65, ptr noundef %66, i32 noundef %67, i32 noundef 1, i32 noundef 0)
  br label %91

69:                                               ; preds = %45
  %70 = load ptr, ptr %11, align 8
  %71 = load i32, ptr @hf_gtpv2_diameter_cause, align 4
  %72 = load ptr, ptr %9, align 8
  %73 = load i32, ptr %17, align 4
  %74 = call ptr @proto_tree_add_item(ptr noundef %70, i32 noundef %71, ptr noundef %72, i32 noundef %73, i32 noundef 2, i32 noundef 0)
  br label %91

75:                                               ; preds = %45
  %76 = load ptr, ptr %11, align 8
  %77 = load i32, ptr @hf_gtpv2_ikev2_cause, align 4
  %78 = load ptr, ptr %9, align 8
  %79 = load i32, ptr %17, align 4
  %80 = call ptr @proto_tree_add_item(ptr noundef %76, i32 noundef %77, ptr noundef %78, i32 noundef %79, i32 noundef 2, i32 noundef 0)
  br label %91

81:                                               ; preds = %45
  %82 = load ptr, ptr %11, align 8
  %83 = load i32, ptr @hf_gtpv2_ran_nas_cause_value, align 4
  %84 = load ptr, ptr %9, align 8
  %85 = load i32, ptr %17, align 4
  %86 = load i16, ptr %13, align 2
  %87 = zext i16 %86 to i32
  %88 = load i32, ptr %17, align 4
  %89 = sub i32 %87, %88
  %90 = call ptr @proto_tree_add_item(ptr noundef %82, i32 noundef %83, ptr noundef %84, i32 noundef %85, i32 noundef %89, i32 noundef 0)
  br label %91

91:                                               ; preds = %81, %75, %69, %63, %57, %50
  call void @llvm.lifetime.end.p0(i64 4, ptr %20) #11
  call void @llvm.lifetime.end.p0(i64 1, ptr %19) #11
  call void @llvm.lifetime.end.p0(i64 1, ptr %18) #11
  call void @llvm.lifetime.end.p0(i64 4, ptr %17) #11
  ret void
}