; Function Attrs: null_pointer_is_valid sspstrong uwtable
define internal void @dissect_gtpv2_ran_nas_cause(ptr noundef %0, ptr readnone captures(none) %1, ptr noundef %2, ptr readnone captures(none) %3, i16 noundef zeroext %4, i8 zeroext %5, i8 zeroext %6, ptr readnone captures(none) %7) #1 {
  %9 = tail call zeroext i8 @tvb_get_uint8(ptr noundef %0, i32 noundef 0)
  %10 = lshr i8 %9, 4
  %11 = load i32, ptr @hf_gtpv2_ran_nas_protocol_type, align 4
  %12 = tail call ptr @proto_tree_add_item(ptr noundef %2, i32 noundef %11, ptr noundef %0, i32 noundef 0, i32 noundef 1, i32 noundef 0)
  switch i8 %10, label %33 [
    i8 1, label %13
    i8 5, label %30
    i8 2, label %21
    i8 3, label %24
    i8 4, label %27
  ]

13:                                               ; preds = %8
  %14 = load i32, ptr @hf_gtpv2_ran_nas_cause_type, align 4
  %15 = tail call ptr @proto_tree_add_item(ptr noundef %2, i32 noundef %14, ptr noundef %0, i32 noundef 0, i32 noundef 1, i32 noundef 0)
  %16 = and i8 %9, 15
  %17 = icmp samesign ult i8 %16, 5
  br i1 %17, label %switch.lookup, label %dissect_gtpv2_s1ap_cause.exit

switch.lookup:                                    ; preds = %13
  %18 = zext nneg i8 %16 to i64
  %switch.gep = getelementptr inbounds nuw [5 x ptr], ptr @switch.table.dissect_gtpv2_ran_nas_cause, i64 0, i64 %18
  %switch.load = load ptr, ptr %switch.gep, align 8
  %19 = load i32, ptr %switch.load, align 4
  %20 = tail call ptr @proto_tree_add_item(ptr noundef %2, i32 noundef %19, ptr noundef %0, i32 noundef 1, i32 noundef 1, i32 noundef 0)
  br label %dissect_gtpv2_s1ap_cause.exit

21:                                               ; preds = %8
  %22 = load i32, ptr @hf_gtpv2_emm_cause, align 4
  %23 = tail call ptr @proto_tree_add_item(ptr noundef %2, i32 noundef %22, ptr noundef %0, i32 noundef 1, i32 noundef 1, i32 noundef 0)
  br label %dissect_gtpv2_s1ap_cause.exit

24:                                               ; preds = %8
  %25 = load i32, ptr @hf_gtpv2_esm_cause, align 4
  %26 = tail call ptr @proto_tree_add_item(ptr noundef %2, i32 noundef %25, ptr noundef %0, i32 noundef 1, i32 noundef 1, i32 noundef 0)
  br label %dissect_gtpv2_s1ap_cause.exit

27:                                               ; preds = %8
  %28 = load i32, ptr @hf_gtpv2_diameter_cause, align 4
  %29 = tail call ptr @proto_tree_add_item(ptr noundef %2, i32 noundef %28, ptr noundef %0, i32 noundef 1, i32 noundef 2, i32 noundef 0)
  br label %dissect_gtpv2_s1ap_cause.exit

30:                                               ; preds = %8
  %31 = load i32, ptr @hf_gtpv2_ikev2_cause, align 4
  %32 = tail call ptr @proto_tree_add_item(ptr noundef %2, i32 noundef %31, ptr noundef %0, i32 noundef 1, i32 noundef 2, i32 noundef 0)
  br label %dissect_gtpv2_s1ap_cause.exit

33:                                               ; preds = %8
  %34 = load i32, ptr @hf_gtpv2_ran_nas_cause_value, align 4
  %35 = zext i16 %4 to i32
  %36 = add nsw i32 %35, -1
  %37 = tail call ptr @proto_tree_add_item(ptr noundef %2, i32 noundef %34, ptr noundef %0, i32 noundef 1, i32 noundef %36, i32 noundef 0)
  br label %dissect_gtpv2_s1ap_cause.exit

dissect_gtpv2_s1ap_cause.exit:                    ; preds = %13, %switch.lookup, %33, %30, %27, %24, %21
  ret void
}